target datalayout = "e-m:e-p270:32:32-p271:32:32-p272:64:64-i64:64-i128:128-f80:128-n8:16:32:64-S128"
target triple = "x86_64-pc-linux-gnu"

; Function Attrs: inlinehint mustprogress nounwind uwtable
define linkonce_odr noundef float @_ZSt3expf(float noundef %0) #7 comdat {
  %2 = alloca float, align 4
  store float %0, ptr %2, align 4, !tbaa !35
  %3 = load float, ptr %2, align 4, !tbaa !35
  %4 = call float @expf(float noundef %3) #15, !tbaa !10
  ret float %4
}

; Function Attrs: mustprogress uwtable
define internal void @_ZN2cvL12weightWelschEPfiS0_f(ptr noundef %0, i32 noundef %1, ptr noundef %2, float noundef %3) #0 {
  %5 = alloca ptr, align 8
  %6 = alloca i32, align 4
  %7 = alloca ptr, align 8
  %8 = alloca float, align 4
  %9 = alloca i32, align 4
  %10 = alloca float, align 4
  store ptr %0, ptr %5, align 8, !tbaa !37
  store i32 %1, ptr %6, align 4, !tbaa !10
  store ptr %2, ptr %7, align 8, !tbaa !37
  store float %3, ptr %8, align 4, !tbaa !35
  call void @llvm.lifetime.start.p0(i64 4, ptr %9) #15
  call void @llvm.lifetime.start.p0(i64 4, ptr %10) #15
  %11 = load float, ptr %8, align 4, !tbaa !35
  %12 = fcmp oeq float %11, 0.000000e+00
  br i1 %12, label %13, label %14

13:                                               ; preds = %4
  br label %17

14:                                               ; preds = %4
  %15 = load float, ptr %8, align 4, !tbaa !35
  %16 = fdiv float 1.000000e+00, %15
  br label %17

17:                                               ; preds = %14, %13
  %18 = phi float [ 0x3FD5718340000000, %13 ], [ %16, %14 ]
  store float %18, ptr %10, align 4, !tbaa !35
  store i32 0, ptr %9, align 4, !tbaa !10
  br label %19

19:                                               ; preds = %45, %17
  %20 = load i32, ptr %9, align 4, !tbaa !10
  %21 = load i32, ptr %6, align 4, !tbaa !10
  %22 = icmp slt i32 %20, %21
  br i1 %22, label %23, label %48

23:                                               ; preds = %19
  %24 = load ptr, ptr %5, align 8, !tbaa !37
  %25 = load i32, ptr %9, align 4, !tbaa !10
  %26 = sext i32 %25 to i64
  %27 = getelementptr inbounds float, ptr %24, i64 %26
  %28 = load float, ptr %27, align 4, !tbaa !35
  %29 = fneg float %28
  %30 = load ptr, ptr %5, align 8, !tbaa !37
  %31 = load i32, ptr %9, align 4, !tbaa !10
  %32 = sext i32 %31 to i64
  %33 = getelementptr inbounds float, ptr %30, i64 %32
  %34 = load float, ptr %33, align 4, !tbaa !35
  %35 = fmul float %29, %34
  %36 = load float, ptr %10, align 4, !tbaa !35
  %37 = fmul float %35, %36
  %38 = load float, ptr %10, align 4, !tbaa !35
  %39 = fmul float %37, %38
  %40 = call noundef float @_ZSt3expf(float noundef %39)
  %41 = load ptr, ptr %7, align 8, !tbaa !37
  %42 = load i32, ptr %9, align 4, !tbaa !10
  %43 = sext i32 %42 to i64
  %44 = getelementptr inbounds float, ptr %41, i64 %43
  store float %40, ptr %44, align 4, !tbaa !35
  br label %45

45:                                               ; preds = %23
  %46 = load i32, ptr %9, align 4, !tbaa !10
  %47 = add nsw i32 %46, 1
  store i32 %47, ptr %9, align 4, !tbaa !10
  br label %19, !llvm.loop !89

48:                                               ; preds = %19
  call void @llvm.lifetime.end.p0(i64 4, ptr %10) #15
  call void @llvm.lifetime.end.p0(i64 4, ptr %9) #15
  ret void
}